ccopy_reg
_reconstructor
p0
(csklearn.tree.tree
DecisionTreeClassifier
p1
c__builtin__
object
p2
Ntp3
Rp4
(dp5
S'splitter'
p6
S'best'
p7
sS'tree_'
p8
NsS'n_features_'
p9
NsS'n_outputs_'
p10
NsS'n_classes_'
p11
NsS'random_state'
p12
NsS'classes_'
p13
NsS'max_features_'
p14
NsS'min_samples_leaf'
p15
I1
sS'max_features'
p16
NsS'min_weight_fraction_leaf'
p17
F0.0
sS'criterion'
p18
S'gini'
p19
sS'max_leaf_nodes'
p20
NsS'min_samples_split'
p21
I2
sS'max_depth'
p22
NsS'class_weight'
p23
Nsb.